target datalayout = "e-m:e-p270:32:32-p271:32:32-p272:64:64-i64:64-i128:128-f80:128-n8:16:32:64-S128"
target triple = "x86_64-pc-linux-gnu"

%"class.icu_77::Locale" = type <{ %"class.icu_77::UObject", [12 x i8], [6 x i8], [4 x i8], [2 x i8], i32, [4 x i8], ptr, [157 x i8], [3 x i8], ptr, i8, [7 x i8] }>
%"class.icu_77::UObject" = type { ptr }

@.str = private unnamed_addr constant [1 x i8] zeroinitializer, align 1

; Function Attrs: inlinehint mustprogress nounwind uwtable
define linkonce_odr noundef ptr @_ZNK6icu_776Locale10getVariantEv(ptr noundef nonnull align 8 dereferenceable(217) %0) #2 comdat align 2 {
  %2 = alloca ptr, align 8
  store ptr %0, ptr %2, align 8, !tbaa !32
  %3 = load ptr, ptr %2, align 8
  %4 = getelementptr inbounds nuw %"class.icu_77::Locale", ptr %3, i32 0, i32 11
  %5 = load i8, ptr %4, align 8, !tbaa !34
  %6 = icmp ne i8 %5, 0
  br i1 %6, label %7, label %8

7:                                                ; preds = %1
  br label %15

8:                                                ; preds = %1
  %9 = getelementptr inbounds nuw %"class.icu_77::Locale", ptr %3, i32 0, i32 10
  %10 = load ptr, ptr %9, align 8, !tbaa !37
  %11 = getelementptr inbounds nuw %"class.icu_77::Locale", ptr %3, i32 0, i32 5
  %12 = load i32, ptr %11, align 8, !tbaa !38
  %13 = sext i32 %12 to i64
  %14 = getelementptr inbounds i8, ptr %10, i64 %13
  br label %15

15:                                               ; preds = %8, %7
  %16 = phi ptr [ @.str, %7 ], [ %14, %8 ]
  ret ptr %16
}

; Function Attrs: mustprogress uwtable
define ptr @ulocale_getVariant_77(ptr noundef %0) #1 {
  %2 = alloca ptr, align 8
  %3 = alloca ptr, align 8
  store ptr %0, ptr %3, align 8, !tbaa !28
  %4 = load ptr, ptr %3, align 8, !tbaa !28
  %5 = icmp eq ptr %4, null
  br i1 %5, label %6, label %7

6:                                                ; preds = %1
  store ptr null, ptr %2, align 8
  br label %10

7:                                                ; preds = %1
  %8 = load ptr, ptr %3, align 8, !tbaa !28
  %9 = call noundef ptr @_ZNK6icu_776Locale10getVariantEv(ptr noundef nonnull align 8 dereferenceable(217) %8)
  store ptr %9, ptr %2, align 8
  br label %10

10:                                               ; preds = %7, %6
  %11 = load ptr, ptr %2, align 8
  ret ptr %11
}