; Function Attrs: mustprogress nofree norecurse nosync nounwind willreturn memory(argmem: read) uwtable
define ptr @ulocale_getVariant_77(ptr noundef readonly %0) local_unnamed_addr #12 {
  %2 = icmp eq ptr %0, null
  br i1 %2, label %13, label %3

3:                                                ; preds = %1
  %4 = getelementptr inbounds nuw i8, ptr %0, i64 216
  %5 = load i8, ptr %4, align 8, !tbaa !20
  %.not.i = icmp eq i8 %5, 0
  %6 = getelementptr inbounds nuw i8, ptr %0, i64 208
  %7 = load ptr, ptr %6, align 8
  %8 = getelementptr inbounds nuw i8, ptr %0, i64 32
  %9 = load i32, ptr %8, align 8
  %10 = sext i32 %9 to i64
  %11 = getelementptr inbounds i8, ptr %7, i64 %10
  %12 = select i1 %.not.i, ptr %11, ptr @.str
  br label %13

13:                                               ; preds = %1, %3
  %.0 = phi ptr [ %12, %3 ], [ null, %1 ]
  ret ptr %.0
}